; Function Attrs: mustprogress uwtable
define noundef i32 @_ZNK6casadi10HorzRepsum4evalEPPKdPPdPxS4_(ptr noundef nonnull align 8 dereferenceable(72) %0, ptr noundef readonly captures(none) %1, ptr noundef readonly captures(none) %2, ptr readnone captures(none) %3, ptr readnone captures(none) %4) unnamed_addr #3 align 2 {
  %6 = getelementptr inbounds nuw i8, ptr %0, i64 56
  %7 = tail call noundef i64 @_ZNK6casadi8Sparsity3nnzEv(ptr noundef nonnull align 8 dereferenceable(8) %6)
  %8 = load ptr, ptr %2, align 8, !tbaa !52
  %9 = icmp slt i64 %7, 1
  br i1 %9, label %_ZSt6fill_nIPdxiET_S1_T0_RKT1_.exit.i, label %.lr.ph.i.i.i.i.i

.lr.ph.i.i.i.i.i:                                 ; preds = %5
  %10 = shl i64 %7, 3
  tail call void @llvm.memset.p0.i64(ptr align 8 %8, i8 0, i64 %10, i1 false), !tbaa !136
  br label %_ZSt6fill_nIPdxiET_S1_T0_RKT1_.exit.i

_ZSt6fill_nIPdxiET_S1_T0_RKT1_.exit.i:            ; preds = %.lr.ph.i.i.i.i.i, %5
  %11 = getelementptr inbounds nuw i8, ptr %0, i64 64
  %12 = load i64, ptr %11, align 8, !tbaa !113
  %13 = icmp sgt i64 %12, 0
  br i1 %13, label %.lr.ph.i, label %_ZNK6casadi10HorzRepsum8eval_genIdSt4plusIdEEEiPPKT_PPS4_PxS8_T0_.exit

.lr.ph.i:                                         ; preds = %_ZSt6fill_nIPdxiET_S1_T0_RKT1_.exit.i
  %14 = load ptr, ptr %1, align 8, !tbaa !52
  %.not11.i.i = icmp eq i64 %7, 0
  br i1 %.not11.i.i, label %_ZNK6casadi10HorzRepsum8eval_genIdSt4plusIdEEEiPPKT_PPS4_PxS8_T0_.exit, label %.lr.ph.i.preheader.i

.lr.ph.i.preheader.i:                             ; preds = %.lr.ph.i, %_ZSt9transformIPKdPdS2_St4plusIdEET1_T_S6_T0_S5_T2_.exit.loopexit.i
  %.012.i = phi i64 [ %17, %_ZSt9transformIPKdPdS2_St4plusIdEET1_T_S6_T0_S5_T2_.exit.loopexit.i ], [ 0, %.lr.ph.i ]
  %15 = mul nsw i64 %.012.i, %7
  %16 = getelementptr inbounds double, ptr %14, i64 %15
  %17 = add nuw nsw i64 %.012.i, 1
  %18 = mul nsw i64 %17, %7
  %19 = getelementptr inbounds double, ptr %14, i64 %18
  br label %.lr.ph.i.i

.lr.ph.i.i:                                       ; preds = %.lr.ph.i.i, %.lr.ph.i.preheader.i
  %.014.i.i = phi ptr [ %24, %.lr.ph.i.i ], [ %8, %.lr.ph.i.preheader.i ]
  %.01012.i.i = phi ptr [ %23, %.lr.ph.i.i ], [ %16, %.lr.ph.i.preheader.i ]
  %20 = load double, ptr %.01012.i.i, align 8, !tbaa !136
  %21 = load double, ptr %.014.i.i, align 8, !tbaa !136
  %22 = fadd double %20, %21
  store double %22, ptr %.014.i.i, align 8, !tbaa !136
  %23 = getelementptr inbounds nuw i8, ptr %.01012.i.i, i64 8
  %24 = getelementptr i8, ptr %.014.i.i, i64 8
  %.not.i.i = icmp eq ptr %23, %19
  br i1 %.not.i.i, label %_ZSt9transformIPKdPdS2_St4plusIdEET1_T_S6_T0_S5_T2_.exit.loopexit.i, label %.lr.ph.i.i, !llvm.loop !138

_ZSt9transformIPKdPdS2_St4plusIdEET1_T_S6_T0_S5_T2_.exit.loopexit.i: ; preds = %.lr.ph.i.i
  %exitcond.not.i = icmp eq i64 %17, %12
  br i1 %exitcond.not.i, label %_ZNK6casadi10HorzRepsum8eval_genIdSt4plusIdEEEiPPKT_PPS4_PxS8_T0_.exit, label %.lr.ph.i.preheader.i, !llvm.loop !139

_ZNK6casadi10HorzRepsum8eval_genIdSt4plusIdEEEiPPKT_PPS4_PxS8_T0_.exit: ; preds = %_ZSt9transformIPKdPdS2_St4plusIdEET1_T_S6_T0_S5_T2_.exit.loopexit.i, %_ZSt6fill_nIPdxiET_S1_T0_RKT1_.exit.i, %.lr.ph.i
  ret i32 0
}